target datalayout = "e-m:e-p270:32:32-p271:32:32-p272:64:64-i64:64-i128:128-f80:128-n8:16:32:64-S128"
target triple = "x86_64-pc-linux-gnu"

@hf_ccp_opt_window = internal global i32 0, align 4
@hf_ccp_opt_method = internal global i32 0, align 4
@hf_ccp_opt_mbz = internal global i32 0, align 4
@hf_ccp_opt_chk = internal global i32 0, align 4
@ett_ccp_deflate_opt = internal global i32 0, align 4
@proto_ccp_option_deflate = internal global i32 0, align 4
@.str.1443 = private unnamed_addr constant [3 x i8] c"%u\00", align 1

; Function Attrs: null_pointer_is_valid sspstrong uwtable
define internal i32 @dissect_ccp_deflate_opt(ptr noundef %0, ptr noundef %1, ptr noundef %2, ptr noundef %3) #1 {
  %5 = alloca i32, align 4
  %6 = alloca ptr, align 8
  %7 = alloca ptr, align 8
  %8 = alloca ptr, align 8
  %9 = alloca ptr, align 8
  %10 = alloca ptr, align 8
  %11 = alloca ptr, align 8
  %12 = alloca i32, align 4
  %13 = alloca i8, align 1
  %14 = alloca i32, align 4
  store ptr %0, ptr %6, align 8
  store ptr %1, ptr %7, align 8
  store ptr %2, ptr %8, align 8
  store ptr %3, ptr %9, align 8
  call void @llvm.lifetime.start.p0(i64 8, ptr %10) #6
  call void @llvm.lifetime.start.p0(i64 8, ptr %11) #6
  call void @llvm.lifetime.start.p0(i64 4, ptr %12) #6
  store i32 0, ptr %12, align 4
  call void @llvm.lifetime.start.p0(i64 1, ptr %13) #6
  %15 = load ptr, ptr %6, align 8
  %16 = load ptr, ptr %7, align 8
  %17 = load ptr, ptr %8, align 8
  %18 = load i32, ptr @proto_ccp_option_deflate, align 4
  %19 = load i32, ptr @ett_ccp_deflate_opt, align 4
  %20 = call zeroext i1 @dissect_ccp_fixed_opt(ptr noundef %15, ptr noundef %16, ptr noundef %17, i32 noundef %18, i32 noundef %19, i32 noundef 4, ptr noundef %10, ptr noundef %11)
  br i1 %20, label %24, label %21

21:                                               ; preds = %4
  %22 = load ptr, ptr %6, align 8
  %23 = call i32 @tvb_captured_length(ptr noundef %22)
  store i32 %23, ptr %5, align 4
  store i32 1, ptr %14, align 4
  br label %63

24:                                               ; preds = %4
  %25 = load ptr, ptr %6, align 8
  %26 = load i32, ptr %12, align 4
  %27 = add i32 %26, 2
  %28 = call zeroext i8 @tvb_get_uint8(ptr noundef %25, i32 noundef %27)
  store i8 %28, ptr %13, align 1
  %29 = load ptr, ptr %10, align 8
  %30 = load i32, ptr @hf_ccp_opt_window, align 4
  %31 = load ptr, ptr %6, align 8
  %32 = load i32, ptr %12, align 4
  %33 = add i32 %32, 2
  %34 = load i8, ptr %13, align 1
  %35 = zext i8 %34 to i32
  %36 = load i8, ptr %13, align 1
  %37 = zext i8 %36 to i32
  %38 = and i32 %37, 240
  %39 = ashr i32 %38, 4
  %40 = add i32 %39, 8
  %41 = shl i32 1, %40
  %42 = call ptr (ptr, i32, ptr, i32, i32, i32, ptr, ...) @proto_tree_add_uint_format_value(ptr noundef %29, i32 noundef %30, ptr noundef %31, i32 noundef %33, i32 noundef 1, i32 noundef %35, ptr noundef @.str.1443, i32 noundef %41)
  %43 = load ptr, ptr %10, align 8
  %44 = load i32, ptr @hf_ccp_opt_method, align 4
  %45 = load ptr, ptr %6, align 8
  %46 = load i32, ptr %12, align 4
  %47 = add i32 %46, 2
  %48 = call ptr @proto_tree_add_item(ptr noundef %43, i32 noundef %44, ptr noundef %45, i32 noundef %47, i32 noundef 1, i32 noundef 0)
  %49 = load ptr, ptr %10, align 8
  %50 = load i32, ptr @hf_ccp_opt_mbz, align 4
  %51 = load ptr, ptr %6, align 8
  %52 = load i32, ptr %12, align 4
  %53 = add i32 %52, 3
  %54 = call ptr @proto_tree_add_item(ptr noundef %49, i32 noundef %50, ptr noundef %51, i32 noundef %53, i32 noundef 1, i32 noundef 0)
  %55 = load ptr, ptr %10, align 8
  %56 = load i32, ptr @hf_ccp_opt_chk, align 4
  %57 = load ptr, ptr %6, align 8
  %58 = load i32, ptr %12, align 4
  %59 = add i32 %58, 3
  %60 = call ptr @proto_tree_add_item(ptr noundef %55, i32 noundef %56, ptr noundef %57, i32 noundef %59, i32 noundef 1, i32 noundef 0)
  %61 = load ptr, ptr %6, align 8
  %62 = call i32 @tvb_captured_length(ptr noundef %61)
  store i32 %62, ptr %5, align 4
  store i32 1, ptr %14, align 4
  br label %63

63:                                               ; preds = %24, %21
  call void @llvm.lifetime.end.p0(i64 1, ptr %13) #6
  call void @llvm.lifetime.end.p0(i64 4, ptr %12) #6
  call void @llvm.lifetime.end.p0(i64 8, ptr %11) #6
  call void @llvm.lifetime.end.p0(i64 8, ptr %10) #6
  %64 = load i32, ptr %5, align 4
  ret i32 %64
}