; Function Attrs: null_pointer_is_valid sspstrong uwtable
define internal i32 @dissect_ccp_deflate_opt(ptr noundef %0, ptr noundef %1, ptr noundef %2, ptr readnone captures(none) %3) #1 {
  %5 = alloca ptr, align 8
  %6 = alloca ptr, align 8
  call void @llvm.lifetime.start.p0(i64 8, ptr nonnull %5) #8
  call void @llvm.lifetime.start.p0(i64 8, ptr nonnull %6) #8
  %7 = load i32, ptr @proto_ccp_option_deflate, align 4
  %8 = load i32, ptr @ett_ccp_deflate_opt, align 4
  %9 = call fastcc zeroext i1 @dissect_ccp_fixed_opt(ptr noundef %0, ptr noundef %1, ptr noundef %2, i32 noundef %7, i32 noundef %8, i32 noundef 4, ptr noundef nonnull %5, ptr noundef nonnull %6)
  br i1 %9, label %10, label %24

10:                                               ; preds = %4
  %11 = tail call zeroext i8 @tvb_get_uint8(ptr noundef %0, i32 noundef 2)
  %12 = load ptr, ptr %5, align 8
  %13 = load i32, ptr @hf_ccp_opt_window, align 4
  %14 = zext i8 %11 to i32
  %15 = lshr i32 %14, 4
  %16 = shl nuw nsw i32 256, %15
  %17 = tail call ptr (ptr, i32, ptr, i32, i32, i32, ptr, ...) @proto_tree_add_uint_format_value(ptr noundef %12, i32 noundef %13, ptr noundef %0, i32 noundef 2, i32 noundef 1, i32 noundef %14, ptr noundef nonnull @.str.1443, i32 noundef %16)
  %18 = load i32, ptr @hf_ccp_opt_method, align 4
  %19 = tail call ptr @proto_tree_add_item(ptr noundef %12, i32 noundef %18, ptr noundef %0, i32 noundef 2, i32 noundef 1, i32 noundef 0)
  %20 = load i32, ptr @hf_ccp_opt_mbz, align 4
  %21 = tail call ptr @proto_tree_add_item(ptr noundef %12, i32 noundef %20, ptr noundef %0, i32 noundef 3, i32 noundef 1, i32 noundef 0)
  %22 = load i32, ptr @hf_ccp_opt_chk, align 4
  %23 = tail call ptr @proto_tree_add_item(ptr noundef %12, i32 noundef %22, ptr noundef %0, i32 noundef 3, i32 noundef 1, i32 noundef 0)
  br label %24

24:                                               ; preds = %4, %10
  %25 = tail call i32 @tvb_captured_length(ptr noundef %0)
  call void @llvm.lifetime.end.p0(i64 8, ptr nonnull %6) #8
  call void @llvm.lifetime.end.p0(i64 8, ptr nonnull %5) #8
  ret i32 %25
}